target datalayout = "e-m:e-p270:32:32-p271:32:32-p272:64:64-i64:64-i128:128-f80:128-n8:16:32:64-S128"
target triple = "x86_64-pc-linux-gnu"

@stdout = external global ptr, align 8
@.str = private unnamed_addr constant [26 x i8] c"Writing BLIF has failed.\0A\00", align 1

; Function Attrs: nounwind uwtable
define void @Io_WriteBlifLogic(ptr noundef %0, ptr noundef %1, i32 noundef %2) #0 {
  %4 = alloca ptr, align 8
  %5 = alloca ptr, align 8
  %6 = alloca i32, align 4
  %7 = alloca ptr, align 8
  store ptr %0, ptr %4, align 8
  store ptr %1, ptr %5, align 8
  store i32 %2, ptr %6, align 4
  %8 = load ptr, ptr %4, align 8
  %9 = call ptr @Abc_NtkToNetlist(ptr noundef %8)
  store ptr %9, ptr %7, align 8
  %10 = load ptr, ptr %7, align 8
  %11 = icmp eq ptr %10, null
  br i1 %11, label %12, label %15

12:                                               ; preds = %3
  %13 = load ptr, ptr @stdout, align 8
  %14 = call i32 (ptr, ptr, ...) @fprintf(ptr noundef %13, ptr noundef @.str) #7
  br label %20

15:                                               ; preds = %3
  %16 = load ptr, ptr %7, align 8
  %17 = load ptr, ptr %5, align 8
  %18 = load i32, ptr %6, align 4
  call void @Io_WriteBlif(ptr noundef %16, ptr noundef %17, i32 noundef %18, i32 noundef 0, i32 noundef 0)
  %19 = load ptr, ptr %7, align 8
  call void @Abc_NtkDelete(ptr noundef %19)
  br label %20

20:                                               ; preds = %15, %12
  ret void
}