; Function Attrs: nounwind uwtable
define void @Io_WriteBlifLogic(ptr noundef %0, ptr noundef readonly captures(none) %1, i32 noundef %2) local_unnamed_addr #0 {
  %4 = tail call ptr @Abc_NtkToNetlist(ptr noundef %0) #10
  %5 = icmp eq ptr %4, null
  br i1 %5, label %6, label %9

6:                                                ; preds = %3
  %7 = load ptr, ptr @stdout, align 8
  %8 = tail call i64 @fwrite(ptr nonnull @.str, i64 25, i64 1, ptr %7)
  br label %10

9:                                                ; preds = %3
  tail call void @Io_WriteBlif(ptr noundef nonnull %4, ptr noundef %1, i32 noundef %2, i32 noundef 0, i32 noundef 0)
  tail call void @Abc_NtkDelete(ptr noundef nonnull %4) #10
  br label %10

10:                                               ; preds = %9, %6
  ret void
}